target datalayout = "e-m:e-p270:32:32-p271:32:32-p272:64:64-i64:64-i128:128-f80:128-n8:16:32:64-S128"
target triple = "x86_64-pc-linux-gnu"

%struct.TiffEncoderContext = type { ptr, ptr, i32, i32, i32, i32, i32, i32, i32, ptr, i32, ptr, i32, ptr, i32, i32, [384 x i8], i32, ptr, ptr, i32, [2 x i16], ptr, i32 }

@.str.16 = private unnamed_addr constant [21 x i8] c"Buffer is too small\0A\00", align 1
@.str.19 = private unnamed_addr constant [30 x i8] c"Assertion %s failed at %s:%d\0A\00", align 1
@.str.20 = private unnamed_addr constant [20 x i8] c"s->num_entries < 32\00", align 1
@.str.21 = private unnamed_addr constant [21 x i8] c"libavcodec/tiffenc.c\00", align 1
@type_sizes = internal constant [14 x i8] c"\00\01d\02\04\08\01\01\02\04\08\04\08\04", align 1
@type_sizes2 = internal constant [14 x i8] c"\00\01\01\02\04\08\01\01\02\04\08\04\08\04", align 1

; Function Attrs: inlinehint nounwind uwtable
define internal i32 @check_size(ptr noundef %0, i64 noundef %1) #4 {
  %3 = alloca i32, align 4
  %4 = alloca ptr, align 8
  %5 = alloca i64, align 8
  store ptr %0, ptr %4, align 8, !tbaa !29
  store i64 %1, ptr %5, align 8, !tbaa !84
  %6 = load ptr, ptr %4, align 8, !tbaa !29
  %7 = getelementptr inbounds nuw %struct.TiffEncoderContext, ptr %6, i32 0, i32 20
  %8 = load i32, ptr %7, align 8, !tbaa !69
  %9 = sext i32 %8 to i64
  %10 = load ptr, ptr %4, align 8, !tbaa !29
  %11 = getelementptr inbounds nuw %struct.TiffEncoderContext, ptr %10, i32 0, i32 18
  %12 = load ptr, ptr %11, align 8, !tbaa !67
  %13 = load ptr, ptr %12, align 8, !tbaa !65
  %14 = load ptr, ptr %4, align 8, !tbaa !29
  %15 = getelementptr inbounds nuw %struct.TiffEncoderContext, ptr %14, i32 0, i32 19
  %16 = load ptr, ptr %15, align 8, !tbaa !66
  %17 = ptrtoint ptr %13 to i64
  %18 = ptrtoint ptr %16 to i64
  %19 = sub i64 %17, %18
  %20 = load i64, ptr %5, align 8, !tbaa !84
  %21 = add i64 %19, %20
  %22 = icmp ult i64 %9, %21
  br i1 %22, label %23, label %39

23:                                               ; preds = %2
  %24 = load ptr, ptr %4, align 8, !tbaa !29
  %25 = getelementptr inbounds nuw %struct.TiffEncoderContext, ptr %24, i32 0, i32 19
  %26 = load ptr, ptr %25, align 8, !tbaa !66
  %27 = load ptr, ptr %4, align 8, !tbaa !29
  %28 = getelementptr inbounds nuw %struct.TiffEncoderContext, ptr %27, i32 0, i32 20
  %29 = load i32, ptr %28, align 8, !tbaa !69
  %30 = sext i32 %29 to i64
  %31 = getelementptr inbounds i8, ptr %26, i64 %30
  %32 = getelementptr inbounds i8, ptr %31, i64 1
  %33 = load ptr, ptr %4, align 8, !tbaa !29
  %34 = getelementptr inbounds nuw %struct.TiffEncoderContext, ptr %33, i32 0, i32 18
  %35 = load ptr, ptr %34, align 8, !tbaa !67
  store ptr %32, ptr %35, align 8, !tbaa !65
  %36 = load ptr, ptr %4, align 8, !tbaa !29
  %37 = getelementptr inbounds nuw %struct.TiffEncoderContext, ptr %36, i32 0, i32 1
  %38 = load ptr, ptr %37, align 8, !tbaa !31
  call void (ptr, i32, ptr, ...) @av_log(ptr noundef %38, i32 noundef 16, ptr noundef @.str.16)
  store i32 1, ptr %3, align 4
  br label %40

39:                                               ; preds = %2
  store i32 0, ptr %3, align 4
  br label %40

40:                                               ; preds = %39, %23
  %41 = load i32, ptr %3, align 4
  ret i32 %41
}

; Function Attrs: nounwind uwtable
define internal void @tnput(ptr noundef %0, i32 noundef %1, ptr noundef %2, i32 noundef %3, i32 noundef %4) #1 {
  %6 = alloca ptr, align 8
  %7 = alloca i32, align 4
  %8 = alloca ptr, align 8
  %9 = alloca i32, align 4
  %10 = alloca i32, align 4
  %11 = alloca i32, align 4
  store ptr %0, ptr %6, align 8, !tbaa !85
  store i32 %1, ptr %7, align 4, !tbaa !44
  store ptr %2, ptr %8, align 8, !tbaa !65
  store i32 %3, ptr %9, align 4, !tbaa !44
  store i32 %4, ptr %10, align 4, !tbaa !44
  call void @llvm.lifetime.start.p0(i64 4, ptr %11) #9
  store i32 0, ptr %11, align 4, !tbaa !44
  br label %12

12:                                               ; preds = %33, %5
  %13 = load i32, ptr %11, align 4, !tbaa !44
  %14 = load i32, ptr %7, align 4, !tbaa !44
  %15 = load i32, ptr %9, align 4, !tbaa !44
  %16 = zext i32 %15 to i64
  %17 = getelementptr inbounds nuw [14 x i8], ptr @type_sizes2, i64 0, i64 %16
  %18 = load i8, ptr %17, align 1, !tbaa !86
  %19 = zext i8 %18 to i32
  %20 = mul nsw i32 %14, %19
  %21 = icmp slt i32 %13, %20
  br i1 %21, label %22, label %36

22:                                               ; preds = %12
  %23 = load ptr, ptr %8, align 8, !tbaa !65
  %24 = load i32, ptr %11, align 4, !tbaa !44
  %25 = load i32, ptr %10, align 4, !tbaa !44
  %26 = xor i32 %24, %25
  %27 = sext i32 %26 to i64
  %28 = getelementptr inbounds i8, ptr %23, i64 %27
  %29 = load i8, ptr %28, align 1, !tbaa !86
  %30 = load ptr, ptr %6, align 8, !tbaa !85
  %31 = load ptr, ptr %30, align 8, !tbaa !65
  %32 = getelementptr inbounds nuw i8, ptr %31, i32 1
  store ptr %32, ptr %30, align 8, !tbaa !65
  store i8 %29, ptr %31, align 1, !tbaa !86
  br label %33

33:                                               ; preds = %22
  %34 = load i32, ptr %11, align 4, !tbaa !44
  %35 = add nsw i32 %34, 1
  store i32 %35, ptr %11, align 4, !tbaa !44
  br label %12, !llvm.loop !94

36:                                               ; preds = %12
  call void @llvm.lifetime.end.p0(i64 4, ptr %11) #9
  ret void
}

; Function Attrs: alwaysinline nounwind uwtable
define internal void @bytestream_put_le32(ptr noundef %0, i32 noundef %1) #5 {
  %3 = alloca ptr, align 8
  %4 = alloca i32, align 4
  store ptr %0, ptr %3, align 8, !tbaa !85
  store i32 %1, ptr %4, align 4, !tbaa !44
  %5 = load i32, ptr %4, align 4, !tbaa !44
  %6 = load ptr, ptr %3, align 8, !tbaa !85
  %7 = load ptr, ptr %6, align 8, !tbaa !65
  store i32 %5, ptr %7, align 1, !tbaa !86
  %8 = load ptr, ptr %3, align 8, !tbaa !85
  %9 = load ptr, ptr %8, align 8, !tbaa !65
  %10 = getelementptr inbounds i8, ptr %9, i64 4
  store ptr %10, ptr %8, align 8, !tbaa !65
  ret void
}

; Function Attrs: alwaysinline nounwind uwtable
define internal void @bytestream_put_le16(ptr noundef %0, i32 noundef %1) #5 {
  %3 = alloca ptr, align 8
  %4 = alloca i32, align 4
  store ptr %0, ptr %3, align 8, !tbaa !85
  store i32 %1, ptr %4, align 4, !tbaa !44
  %5 = load i32, ptr %4, align 4, !tbaa !44
  %6 = trunc i32 %5 to i16
  %7 = load ptr, ptr %3, align 8, !tbaa !85
  %8 = load ptr, ptr %7, align 8, !tbaa !65
  store i16 %6, ptr %8, align 1, !tbaa !86
  %9 = load ptr, ptr %3, align 8, !tbaa !85
  %10 = load ptr, ptr %9, align 8, !tbaa !65
  %11 = getelementptr inbounds i8, ptr %10, i64 2
  store ptr %11, ptr %9, align 8, !tbaa !65
  ret void
}

; Function Attrs: nounwind uwtable
define internal i32 @add_entry(ptr noundef %0, i32 noundef %1, i32 noundef %2, i32 noundef %3, ptr noundef %4) #1 {
  %6 = alloca i32, align 4
  %7 = alloca ptr, align 8
  %8 = alloca i32, align 4
  %9 = alloca i32, align 4
  %10 = alloca i32, align 4
  %11 = alloca ptr, align 8
  %12 = alloca ptr, align 8
  %13 = alloca i32, align 4
  store ptr %0, ptr %7, align 8, !tbaa !29
  store i32 %1, ptr %8, align 4, !tbaa !44
  store i32 %2, ptr %9, align 4, !tbaa !44
  store i32 %3, ptr %10, align 4, !tbaa !44
  store ptr %4, ptr %11, align 8, !tbaa !93
  call void @llvm.lifetime.start.p0(i64 8, ptr %12) #9
  %14 = load ptr, ptr %7, align 8, !tbaa !29
  %15 = getelementptr inbounds nuw %struct.TiffEncoderContext, ptr %14, i32 0, i32 16
  %16 = getelementptr inbounds [384 x i8], ptr %15, i64 0, i64 0
  %17 = load ptr, ptr %7, align 8, !tbaa !29
  %18 = getelementptr inbounds nuw %struct.TiffEncoderContext, ptr %17, i32 0, i32 17
  %19 = load i32, ptr %18, align 8, !tbaa !76
  %20 = mul nsw i32 12, %19
  %21 = sext i32 %20 to i64
  %22 = getelementptr inbounds i8, ptr %16, i64 %21
  store ptr %22, ptr %12, align 8, !tbaa !65
  br label %23

23:                                               ; preds = %5
  %24 = load ptr, ptr %7, align 8, !tbaa !29
  %25 = getelementptr inbounds nuw %struct.TiffEncoderContext, ptr %24, i32 0, i32 17
  %26 = load i32, ptr %25, align 8, !tbaa !76
  %27 = icmp slt i32 %26, 32
  br i1 %27, label %29, label %28

28:                                               ; preds = %23
  call void (ptr, i32, ptr, ...) @av_log(ptr noundef null, i32 noundef 0, ptr noundef @.str.19, ptr noundef @.str.20, ptr noundef @.str.21, i32 noundef 133)
  call void @abort() #11
  unreachable

29:                                               ; preds = %23
  br label %30

30:                                               ; preds = %29
  br label %31

31:                                               ; preds = %30
  %32 = load i32, ptr %8, align 4, !tbaa !44
  call void @bytestream_put_le16(ptr noundef %12, i32 noundef %32)
  %33 = load i32, ptr %9, align 4, !tbaa !44
  call void @bytestream_put_le16(ptr noundef %12, i32 noundef %33)
  %34 = load i32, ptr %10, align 4, !tbaa !44
  call void @bytestream_put_le32(ptr noundef %12, i32 noundef %34)
  %35 = load i32, ptr %9, align 4, !tbaa !44
  %36 = zext i32 %35 to i64
  %37 = getelementptr inbounds nuw [14 x i8], ptr @type_sizes, i64 0, i64 %36
  %38 = load i8, ptr %37, align 1, !tbaa !86
  %39 = zext i8 %38 to i64
  %40 = load i32, ptr %10, align 4, !tbaa !44
  %41 = sext i32 %40 to i64
  %42 = mul nsw i64 %39, %41
  %43 = icmp sle i64 %42, 4
  br i1 %43, label %44, label %48

44:                                               ; preds = %31
  %45 = load i32, ptr %10, align 4, !tbaa !44
  %46 = load ptr, ptr %11, align 8, !tbaa !93
  %47 = load i32, ptr %9, align 4, !tbaa !44
  call void @tnput(ptr noundef %12, i32 noundef %45, ptr noundef %46, i32 noundef %47, i32 noundef 0)
  br label %79

48:                                               ; preds = %31
  %49 = load ptr, ptr %7, align 8, !tbaa !29
  %50 = getelementptr inbounds nuw %struct.TiffEncoderContext, ptr %49, i32 0, i32 18
  %51 = load ptr, ptr %50, align 8, !tbaa !67
  %52 = load ptr, ptr %51, align 8, !tbaa !65
  %53 = load ptr, ptr %7, align 8, !tbaa !29
  %54 = getelementptr inbounds nuw %struct.TiffEncoderContext, ptr %53, i32 0, i32 19
  %55 = load ptr, ptr %54, align 8, !tbaa !66
  %56 = ptrtoint ptr %52 to i64
  %57 = ptrtoint ptr %55 to i64
  %58 = sub i64 %56, %57
  %59 = trunc i64 %58 to i32
  call void @bytestream_put_le32(ptr noundef %12, i32 noundef %59)
  %60 = load ptr, ptr %7, align 8, !tbaa !29
  %61 = load i32, ptr %10, align 4, !tbaa !44
  %62 = sext i32 %61 to i64
  %63 = load i32, ptr %9, align 4, !tbaa !44
  %64 = zext i32 %63 to i64
  %65 = getelementptr inbounds nuw [14 x i8], ptr @type_sizes2, i64 0, i64 %64
  %66 = load i8, ptr %65, align 1, !tbaa !86
  %67 = zext i8 %66 to i64
  %68 = mul nsw i64 %62, %67
  %69 = call i32 @check_size(ptr noundef %60, i64 noundef %68)
  %70 = icmp ne i32 %69, 0
  br i1 %70, label %71, label %72

71:                                               ; preds = %48
  store i32 -1094995529, ptr %6, align 4
  store i32 1, ptr %13, align 4
  br label %84

72:                                               ; preds = %48
  %73 = load ptr, ptr %7, align 8, !tbaa !29
  %74 = getelementptr inbounds nuw %struct.TiffEncoderContext, ptr %73, i32 0, i32 18
  %75 = load ptr, ptr %74, align 8, !tbaa !67
  %76 = load i32, ptr %10, align 4, !tbaa !44
  %77 = load ptr, ptr %11, align 8, !tbaa !93
  %78 = load i32, ptr %9, align 4, !tbaa !44
  call void @tnput(ptr noundef %75, i32 noundef %76, ptr noundef %77, i32 noundef %78, i32 noundef 0)
  br label %79

79:                                               ; preds = %72, %44
  %80 = load ptr, ptr %7, align 8, !tbaa !29
  %81 = getelementptr inbounds nuw %struct.TiffEncoderContext, ptr %80, i32 0, i32 17
  %82 = load i32, ptr %81, align 8, !tbaa !76
  %83 = add nsw i32 %82, 1
  store i32 %83, ptr %81, align 8, !tbaa !76
  store i32 0, ptr %6, align 4
  store i32 1, ptr %13, align 4
  br label %84

84:                                               ; preds = %79, %71
  call void @llvm.lifetime.end.p0(i64 8, ptr %12) #9
  %85 = load i32, ptr %6, align 4
  ret i32 %85
}