; Function Attrs: nounwind uwtable
define internal fastcc range(i32 -1094995529, 1) i32 @add_entry(ptr noundef captures(none) %0, i32 noundef range(i32 254, 533) %1, i32 noundef range(i32 2, 6) %2, i32 noundef %3, ptr noundef readonly captures(none) %4) unnamed_addr #1 {
  %6 = getelementptr inbounds nuw i8, ptr %0, i64 480
  %7 = load i32, ptr %6, align 8, !tbaa !67
  %8 = icmp slt i32 %7, 32
  br i1 %8, label %10, label %9

9:                                                ; preds = %5
  tail call void (ptr, i32, ptr, ...) @av_log(ptr noundef null, i32 noundef 0, ptr noundef nonnull @.str.19, ptr noundef nonnull @.str.20, ptr noundef nonnull @.str.21, i32 noundef 133) #10
  tail call void @abort() #12
  unreachable

10:                                               ; preds = %5
  %11 = getelementptr inbounds nuw i8, ptr %0, i64 96
  %12 = mul nsw i32 %7, 12
  %13 = sext i32 %12 to i64
  %14 = getelementptr inbounds i8, ptr %11, i64 %13
  %15 = trunc nuw nsw i32 %1 to i16
  store i16 %15, ptr %14, align 1, !tbaa !60
  %16 = getelementptr inbounds nuw i8, ptr %14, i64 2
  %17 = trunc nuw nsw i32 %2 to i16
  store i16 %17, ptr %16, align 1, !tbaa !60
  %18 = getelementptr inbounds nuw i8, ptr %14, i64 4
  store i32 %3, ptr %18, align 1, !tbaa !60
  %19 = getelementptr inbounds nuw i8, ptr %14, i64 8
  %20 = zext nneg i32 %2 to i64
  %21 = getelementptr inbounds nuw [14 x i8], ptr @type_sizes, i64 0, i64 %20
  %22 = load i8, ptr %21, align 1, !tbaa !60
  %23 = zext i8 %22 to i64
  %24 = sext i32 %3 to i64
  %25 = mul nsw i64 %23, %24
  %26 = icmp slt i64 %25, 5
  br i1 %26, label %27, label %36

27:                                               ; preds = %10
  %28 = getelementptr inbounds nuw [14 x i8], ptr @type_sizes2, i64 0, i64 %20
  %29 = load i8, ptr %28, align 1, !tbaa !60
  %30 = zext i8 %29 to i32
  %31 = mul nsw i32 %3, %30
  %32 = icmp sgt i32 %31, 0
  br i1 %32, label %.lr.ph.preheader.i, label %tnput.exit

.lr.ph.preheader.i:                               ; preds = %27
  %wide.trip.count.i = zext nneg i32 %31 to i64
  br label %.lr.ph.i

.lr.ph.i:                                         ; preds = %.lr.ph.i, %.lr.ph.preheader.i
  %.036 = phi ptr [ %19, %.lr.ph.preheader.i ], [ %35, %.lr.ph.i ]
  %indvars.iv.i = phi i64 [ 0, %.lr.ph.preheader.i ], [ %indvars.iv.next.i, %.lr.ph.i ]
  %33 = getelementptr inbounds nuw i8, ptr %4, i64 %indvars.iv.i
  %34 = load i8, ptr %33, align 1, !tbaa !60
  %35 = getelementptr inbounds nuw i8, ptr %.036, i64 1
  store i8 %34, ptr %.036, align 1, !tbaa !60
  %indvars.iv.next.i = add nuw nsw i64 %indvars.iv.i, 1
  %exitcond.not.i = icmp eq i64 %indvars.iv.next.i, %wide.trip.count.i
  br i1 %exitcond.not.i, label %tnput.exit, label %.lr.ph.i, !llvm.loop !80

36:                                               ; preds = %10
  %37 = getelementptr inbounds nuw i8, ptr %0, i64 488
  %38 = load ptr, ptr %37, align 8, !tbaa !57
  %39 = load ptr, ptr %38, align 8, !tbaa !55
  %40 = getelementptr inbounds nuw i8, ptr %0, i64 496
  %41 = load ptr, ptr %40, align 8, !tbaa !56
  %42 = ptrtoint ptr %39 to i64
  %43 = ptrtoint ptr %41 to i64
  %44 = sub i64 %42, %43
  %45 = trunc i64 %44 to i32
  store i32 %45, ptr %19, align 1, !tbaa !60
  %46 = getelementptr inbounds nuw [14 x i8], ptr @type_sizes2, i64 0, i64 %20
  %47 = load i8, ptr %46, align 1, !tbaa !60
  %48 = zext i8 %47 to i64
  %49 = mul nsw i64 %48, %24
  %50 = getelementptr inbounds nuw i8, ptr %0, i64 504
  %51 = load i32, ptr %50, align 8, !tbaa !59
  %52 = sext i32 %51 to i64
  %53 = load ptr, ptr %37, align 8, !tbaa !57
  %54 = load ptr, ptr %53, align 8, !tbaa !55
  %55 = load ptr, ptr %40, align 8, !tbaa !56
  %56 = ptrtoint ptr %54 to i64
  %57 = ptrtoint ptr %55 to i64
  %58 = add i64 %49, %56
  %59 = sub i64 %58, %57
  %60 = icmp ugt i64 %59, %52
  br i1 %60, label %check_size.exit, label %65

check_size.exit:                                  ; preds = %36
  %61 = getelementptr inbounds i8, ptr %55, i64 %52
  %62 = getelementptr inbounds nuw i8, ptr %61, i64 1
  store ptr %62, ptr %53, align 8, !tbaa !55
  %63 = getelementptr inbounds nuw i8, ptr %0, i64 8
  %64 = load ptr, ptr %63, align 8, !tbaa !27
  tail call void (ptr, i32, ptr, ...) @av_log(ptr noundef %64, i32 noundef 16, ptr noundef nonnull @.str.16) #10
  br label %75

65:                                               ; preds = %36
  %66 = zext i8 %47 to i32
  %67 = mul nsw i32 %3, %66
  %68 = icmp sgt i32 %67, 0
  br i1 %68, label %.lr.ph.preheader.i21, label %tnput.exit

.lr.ph.preheader.i21:                             ; preds = %65
  %wide.trip.count.i22 = zext nneg i32 %67 to i64
  br label %.lr.ph.i23

.lr.ph.i23:                                       ; preds = %.lr.ph.i23, %.lr.ph.preheader.i21
  %indvars.iv.i24 = phi i64 [ 0, %.lr.ph.preheader.i21 ], [ %indvars.iv.next.i25, %.lr.ph.i23 ]
  %69 = getelementptr inbounds nuw i8, ptr %4, i64 %indvars.iv.i24
  %70 = load i8, ptr %69, align 1, !tbaa !60
  %71 = load ptr, ptr %53, align 8, !tbaa !55
  %72 = getelementptr inbounds nuw i8, ptr %71, i64 1
  store ptr %72, ptr %53, align 8, !tbaa !55
  store i8 %70, ptr %71, align 1, !tbaa !60
  %indvars.iv.next.i25 = add nuw nsw i64 %indvars.iv.i24, 1
  %exitcond.not.i26 = icmp eq i64 %indvars.iv.next.i25, %wide.trip.count.i22
  br i1 %exitcond.not.i26, label %tnput.exit, label %.lr.ph.i23, !llvm.loop !80

tnput.exit:                                       ; preds = %.lr.ph.i23, %.lr.ph.i, %65, %27
  %73 = load i32, ptr %6, align 8, !tbaa !67
  %74 = add nsw i32 %73, 1
  store i32 %74, ptr %6, align 8, !tbaa !67
  br label %75

75:                                               ; preds = %check_size.exit, %tnput.exit
  %.0 = phi i32 [ 0, %tnput.exit ], [ -1094995529, %check_size.exit ]
  ret i32 %.0
}